target datalayout = "e-m:e-p270:32:32-p271:32:32-p272:64:64-i64:64-i128:128-f80:128-n8:16:32:64-S128"
target triple = "x86_64-pc-linux-gnu"

%struct.Abc_Ntk_t_ = type { i32, i32, ptr, ptr, ptr, ptr, ptr, ptr, ptr, ptr, ptr, ptr, ptr, [11 x i32], i32, i32, i32, i32, ptr, i32, ptr, ptr, i32, i32, i32, double, i32, %struct.Vec_Int_t_, ptr, ptr, ptr, ptr, ptr, float, i32, ptr, ptr, ptr, ptr, ptr, ptr, ptr, ptr, ptr, ptr, ptr, ptr, ptr, ptr, ptr, ptr, ptr, ptr, ptr, ptr, ptr, ptr }
%struct.Vec_Int_t_ = type { i32, i32, ptr }
%struct.Abc_Obj_t_ = type { ptr, ptr, i32, i32, %struct.Vec_Int_t_, %struct.Vec_Int_t_, %union.anon, %union.anon.0 }
%union.anon = type { ptr }
%union.anon.0 = type { ptr }
%struct.Vec_Ptr_t_ = type { i32, i32, ptr }

@.str.1 = private unnamed_addr constant [12 x i8] c"%s_%05d.pla\00", align 1
@.str.2 = private unnamed_addr constant [3 x i8] c"wb\00", align 1
@.str.3 = private unnamed_addr constant [36 x i8] c"Cannot open file \22%s\22 for writing.\0A\00", align 1
@.str.4 = private unnamed_addr constant [63 x i8] c"// Resub instance generated for node %d in network \22%s\22 on %s\0A\00", align 1
@.str.5 = private unnamed_addr constant [7 x i8] c".i %d\0A\00", align 1
@.str.6 = private unnamed_addr constant [7 x i8] c".o %d\0A\00", align 1
@.str.7 = private unnamed_addr constant [7 x i8] c".p %d\0A\00", align 1
@.str.8 = private unnamed_addr constant [3 x i8] c"%d\00", align 1
@.str.9 = private unnamed_addr constant [2 x i8] c" \00", align 1
@.str.10 = private unnamed_addr constant [5 x i8] c" %d\0A\00", align 1
@.str.11 = private unnamed_addr constant [4 x i8] c".e\0A\00", align 1
@.str.12 = private unnamed_addr constant [62 x i8] c"Finished dumping file \22%s\22 with %d divisors and %d patterns.\0A\00", align 1

; Function Attrs: inlinehint nounwind uwtable
define internal i32 @Abc_InfoHasBit(ptr noundef %0, i32 noundef %1) #3 {
  %3 = alloca ptr, align 8
  %4 = alloca i32, align 4
  store ptr %0, ptr %3, align 8, !tbaa !75
  store i32 %1, ptr %4, align 4, !tbaa !8
  %5 = load ptr, ptr %3, align 8, !tbaa !75
  %6 = load i32, ptr %4, align 4, !tbaa !8
  %7 = ashr i32 %6, 5
  %8 = sext i32 %7 to i64
  %9 = getelementptr inbounds i32, ptr %5, i64 %8
  %10 = load i32, ptr %9, align 4, !tbaa !8
  %11 = load i32, ptr %4, align 4, !tbaa !8
  %12 = and i32 %11, 31
  %13 = shl i32 1, %12
  %14 = and i32 %10, %13
  %15 = icmp ugt i32 %14, 0
  %16 = zext i1 %15 to i32
  ret i32 %16
}

; Function Attrs: inlinehint nounwind uwtable
define internal ptr @Vec_PtrEntry(ptr noundef %0, i32 noundef %1) #3 {
  %3 = alloca ptr, align 8
  %4 = alloca i32, align 4
  store ptr %0, ptr %3, align 8, !tbaa !49
  store i32 %1, ptr %4, align 4, !tbaa !8
  %5 = load ptr, ptr %3, align 8, !tbaa !49
  %6 = getelementptr inbounds nuw %struct.Vec_Ptr_t_, ptr %5, i32 0, i32 2
  %7 = load ptr, ptr %6, align 8, !tbaa !72
  %8 = load i32, ptr %4, align 4, !tbaa !8
  %9 = sext i32 %8 to i64
  %10 = getelementptr inbounds ptr, ptr %7, i64 %9
  %11 = load ptr, ptr %10, align 8, !tbaa !74
  ret ptr %11
}

; Function Attrs: inlinehint nounwind uwtable
define internal ptr @Vec_PtrEntryLast(ptr noundef %0) #3 {
  %2 = alloca ptr, align 8
  store ptr %0, ptr %2, align 8, !tbaa !49
  %3 = load ptr, ptr %2, align 8, !tbaa !49
  %4 = getelementptr inbounds nuw %struct.Vec_Ptr_t_, ptr %3, i32 0, i32 2
  %5 = load ptr, ptr %4, align 8, !tbaa !72
  %6 = load ptr, ptr %2, align 8, !tbaa !49
  %7 = getelementptr inbounds nuw %struct.Vec_Ptr_t_, ptr %6, i32 0, i32 1
  %8 = load i32, ptr %7, align 4, !tbaa !86
  %9 = sub nsw i32 %8, 1
  %10 = sext i32 %9 to i64
  %11 = getelementptr inbounds ptr, ptr %5, i64 %10
  %12 = load ptr, ptr %11, align 8, !tbaa !74
  ret ptr %12
}

; Function Attrs: nounwind uwtable
define void @Abc_ManResubDumpInstance(ptr noundef %0, i32 noundef %1, i32 noundef %2, i32 noundef %3) #0 {
  %5 = alloca ptr, align 8
  %6 = alloca i32, align 4
  %7 = alloca i32, align 4
  %8 = alloca i32, align 4
  %9 = alloca ptr, align 8
  %10 = alloca [1000 x i8], align 16
  %11 = alloca ptr, align 8
  %12 = alloca i32, align 4
  %13 = alloca ptr, align 8
  %14 = alloca i32, align 4
  %15 = alloca i32, align 4
  store ptr %0, ptr %5, align 8, !tbaa !49
  store i32 %1, ptr %6, align 4, !tbaa !8
  store i32 %2, ptr %7, align 4, !tbaa !8
  store i32 %3, ptr %8, align 4, !tbaa !8
  call void @llvm.lifetime.start.p0(i64 8, ptr %9) #11
  %16 = load ptr, ptr %5, align 8, !tbaa !49
  %17 = call ptr @Vec_PtrEntryLast(ptr noundef %16)
  store ptr %17, ptr %9, align 8, !tbaa !35
  call void @llvm.lifetime.start.p0(i64 1000, ptr %10) #11
  %18 = getelementptr inbounds [1000 x i8], ptr %10, i64 0, i64 0
  %19 = load ptr, ptr %9, align 8, !tbaa !35
  %20 = getelementptr inbounds nuw %struct.Abc_Obj_t_, ptr %19, i32 0, i32 0
  %21 = load ptr, ptr %20, align 8, !tbaa !117
  %22 = getelementptr inbounds nuw %struct.Abc_Ntk_t_, ptr %21, i32 0, i32 2
  %23 = load ptr, ptr %22, align 8, !tbaa !120
  %24 = load ptr, ptr %9, align 8, !tbaa !35
  %25 = getelementptr inbounds nuw %struct.Abc_Obj_t_, ptr %24, i32 0, i32 2
  %26 = load i32, ptr %25, align 8, !tbaa !121
  %27 = call i32 (ptr, ptr, ...) @sprintf(ptr noundef %18, ptr noundef @.str.1, ptr noundef %23, i32 noundef %26) #11
  call void @llvm.lifetime.start.p0(i64 8, ptr %11) #11
  %28 = getelementptr inbounds [1000 x i8], ptr %10, i64 0, i64 0
  %29 = call noalias ptr @fopen(ptr noundef %28, ptr noundef @.str.2)
  store ptr %29, ptr %11, align 8, !tbaa !44
  %30 = load ptr, ptr %11, align 8, !tbaa !44
  %31 = icmp eq ptr %30, null
  br i1 %31, label %32, label %35

32:                                               ; preds = %4
  %33 = getelementptr inbounds [1000 x i8], ptr %10, i64 0, i64 0
  %34 = call i32 (ptr, ...) @printf(ptr noundef @.str.3, ptr noundef %33)
  store i32 1, ptr %12, align 4
  br label %112

35:                                               ; preds = %4
  %36 = load ptr, ptr %11, align 8, !tbaa !44
  %37 = load ptr, ptr %9, align 8, !tbaa !35
  %38 = getelementptr inbounds nuw %struct.Abc_Obj_t_, ptr %37, i32 0, i32 2
  %39 = load i32, ptr %38, align 8, !tbaa !121
  %40 = load ptr, ptr %9, align 8, !tbaa !35
  %41 = getelementptr inbounds nuw %struct.Abc_Obj_t_, ptr %40, i32 0, i32 0
  %42 = load ptr, ptr %41, align 8, !tbaa !117
  %43 = getelementptr inbounds nuw %struct.Abc_Ntk_t_, ptr %42, i32 0, i32 2
  %44 = load ptr, ptr %43, align 8, !tbaa !120
  %45 = call ptr (...) @Extra_TimeStamp()
  %46 = call i32 (ptr, ptr, ...) @fprintf(ptr noundef %36, ptr noundef @.str.4, i32 noundef %39, ptr noundef %44, ptr noundef %45) #11
  %47 = load ptr, ptr %11, align 8, !tbaa !44
  %48 = load i32, ptr %7, align 4, !tbaa !8
  %49 = call i32 (ptr, ptr, ...) @fprintf(ptr noundef %47, ptr noundef @.str.5, i32 noundef %48) #11
  %50 = load ptr, ptr %11, align 8, !tbaa !44
  %51 = call i32 (ptr, ptr, ...) @fprintf(ptr noundef %50, ptr noundef @.str.6, i32 noundef 1) #11
  %52 = load ptr, ptr %11, align 8, !tbaa !44
  %53 = load i32, ptr %6, align 4, !tbaa !8
  %54 = shl i32 1, %53
  %55 = call i32 (ptr, ptr, ...) @fprintf(ptr noundef %52, ptr noundef @.str.7, i32 noundef %54) #11
  call void @llvm.lifetime.start.p0(i64 8, ptr %13) #11
  call void @llvm.lifetime.start.p0(i64 4, ptr %14) #11
  call void @llvm.lifetime.start.p0(i64 4, ptr %15) #11
  store i32 0, ptr %15, align 4, !tbaa !8
  br label %56

56:                                               ; preds = %99, %35
  %57 = load i32, ptr %15, align 4, !tbaa !8
  %58 = load i32, ptr %6, align 4, !tbaa !8
  %59 = shl i32 1, %58
  %60 = icmp slt i32 %57, %59
  br i1 %60, label %61, label %102

61:                                               ; preds = %56
  store i32 0, ptr %14, align 4, !tbaa !8
  br label %62

62:                                               ; preds = %88, %61
  %63 = load i32, ptr %14, align 4, !tbaa !8
  %64 = load i32, ptr %7, align 4, !tbaa !8
  %65 = icmp slt i32 %63, %64
  br i1 %65, label %66, label %70

66:                                               ; preds = %62
  %67 = load ptr, ptr %5, align 8, !tbaa !49
  %68 = load i32, ptr %14, align 4, !tbaa !8
  %69 = call ptr @Vec_PtrEntry(ptr noundef %67, i32 noundef %68)
  store ptr %69, ptr %13, align 8, !tbaa !35
  br label %70

70:                                               ; preds = %66, %62
  %71 = phi i1 [ false, %62 ], [ true, %66 ]
  br i1 %71, label %72, label %91

72:                                               ; preds = %70
  %73 = load ptr, ptr %11, align 8, !tbaa !44
  %74 = load ptr, ptr %13, align 8, !tbaa !35
  %75 = getelementptr inbounds nuw %struct.Abc_Obj_t_, ptr %74, i32 0, i32 6
  %76 = load ptr, ptr %75, align 8, !tbaa !37
  %77 = load i32, ptr %15, align 4, !tbaa !8
  %78 = call i32 @Abc_InfoHasBit(ptr noundef %76, i32 noundef %77)
  %79 = call i32 (ptr, ptr, ...) @fprintf(ptr noundef %73, ptr noundef @.str.8, i32 noundef %78) #11
  %80 = load i32, ptr %14, align 4, !tbaa !8
  %81 = load i32, ptr %6, align 4, !tbaa !8
  %82 = sub nsw i32 %81, 1
  %83 = icmp eq i32 %80, %82
  br i1 %83, label %84, label %87

84:                                               ; preds = %72
  %85 = load ptr, ptr %11, align 8, !tbaa !44
  %86 = call i32 (ptr, ptr, ...) @fprintf(ptr noundef %85, ptr noundef @.str.9) #11
  br label %87

87:                                               ; preds = %84, %72
  br label %88

88:                                               ; preds = %87
  %89 = load i32, ptr %14, align 4, !tbaa !8
  %90 = add nsw i32 %89, 1
  store i32 %90, ptr %14, align 4, !tbaa !8
  br label %62, !llvm.loop !122

91:                                               ; preds = %70
  %92 = load ptr, ptr %11, align 8, !tbaa !44
  %93 = load ptr, ptr %9, align 8, !tbaa !35
  %94 = getelementptr inbounds nuw %struct.Abc_Obj_t_, ptr %93, i32 0, i32 6
  %95 = load ptr, ptr %94, align 8, !tbaa !37
  %96 = load i32, ptr %15, align 4, !tbaa !8
  %97 = call i32 @Abc_InfoHasBit(ptr noundef %95, i32 noundef %96)
  %98 = call i32 (ptr, ptr, ...) @fprintf(ptr noundef %92, ptr noundef @.str.10, i32 noundef %97) #11
  br label %99

99:                                               ; preds = %91
  %100 = load i32, ptr %15, align 4, !tbaa !8
  %101 = add nsw i32 %100, 1
  store i32 %101, ptr %15, align 4, !tbaa !8
  br label %56, !llvm.loop !123

102:                                              ; preds = %56
  %103 = load ptr, ptr %11, align 8, !tbaa !44
  %104 = call i32 (ptr, ptr, ...) @fprintf(ptr noundef %103, ptr noundef @.str.11) #11
  %105 = load ptr, ptr %11, align 8, !tbaa !44
  %106 = call i32 @fclose(ptr noundef %105)
  %107 = getelementptr inbounds [1000 x i8], ptr %10, i64 0, i64 0
  %108 = load i32, ptr %7, align 4, !tbaa !8
  %109 = load i32, ptr %6, align 4, !tbaa !8
  %110 = shl i32 1, %109
  %111 = call i32 (ptr, ...) @printf(ptr noundef @.str.12, ptr noundef %107, i32 noundef %108, i32 noundef %110)
  call void @llvm.lifetime.end.p0(i64 4, ptr %15) #11
  call void @llvm.lifetime.end.p0(i64 4, ptr %14) #11
  call void @llvm.lifetime.end.p0(i64 8, ptr %13) #11
  store i32 0, ptr %12, align 4
  br label %112

112:                                              ; preds = %102, %32
  call void @llvm.lifetime.end.p0(i64 8, ptr %11) #11
  call void @llvm.lifetime.end.p0(i64 1000, ptr %10) #11
  call void @llvm.lifetime.end.p0(i64 8, ptr %9) #11
  %113 = load i32, ptr %12, align 4
  switch i32 %113, label %115 [
    i32 0, label %114
    i32 1, label %114
  ]

114:                                              ; preds = %112, %112
  ret void

115:                                              ; preds = %112
  unreachable
}