; Function Attrs: nounwind uwtable
define void @Abc_ManResubDumpInstance(ptr noundef readonly captures(none) %0, i32 noundef %1, i32 noundef %2, i32 noundef %3) local_unnamed_addr #0 {
  %5 = alloca [1000 x i8], align 16
  %6 = getelementptr i8, ptr %0, i64 4
  %.val35 = load i32, ptr %6, align 4, !tbaa !32
  %7 = getelementptr i8, ptr %0, i64 8
  %.val36 = load ptr, ptr %7, align 8, !tbaa !35
  %8 = sext i32 %.val35 to i64
  %9 = getelementptr ptr, ptr %.val36, i64 %8
  %10 = getelementptr i8, ptr %9, i64 -8
  %11 = load ptr, ptr %10, align 8, !tbaa !41
  call void @llvm.lifetime.start.p0(i64 1000, ptr nonnull %5) #19
  %12 = load ptr, ptr %11, align 8, !tbaa !73
  %13 = getelementptr inbounds nuw i8, ptr %12, i64 8
  %14 = load ptr, ptr %13, align 8, !tbaa !148
  %15 = getelementptr inbounds nuw i8, ptr %11, i64 16
  %16 = load i32, ptr %15, align 8, !tbaa !79
  %17 = call i32 (ptr, ptr, ...) @sprintf(ptr noundef nonnull dereferenceable(1) %5, ptr noundef nonnull dereferenceable(1) @.str.1, ptr noundef %14, i32 noundef %16) #19
  %18 = call noalias ptr @fopen(ptr noundef nonnull %5, ptr noundef nonnull @.str.2)
  %19 = icmp eq ptr %18, null
  br i1 %19, label %20, label %22

20:                                               ; preds = %4
  %21 = call i32 (ptr, ...) @printf(ptr noundef nonnull dereferenceable(1) @.str.3, ptr noundef nonnull %5)
  br label %73

22:                                               ; preds = %4
  %23 = load i32, ptr %15, align 8, !tbaa !79
  %24 = load ptr, ptr %11, align 8, !tbaa !73
  %25 = getelementptr inbounds nuw i8, ptr %24, i64 8
  %26 = load ptr, ptr %25, align 8, !tbaa !148
  %27 = tail call ptr (...) @Extra_TimeStamp() #19
  %28 = tail call i32 (ptr, ptr, ...) @fprintf(ptr noundef nonnull %18, ptr noundef nonnull @.str.4, i32 noundef %23, ptr noundef %26, ptr noundef %27) #19
  %29 = tail call i32 (ptr, ptr, ...) @fprintf(ptr noundef nonnull %18, ptr noundef nonnull @.str.5, i32 noundef %2) #19
  %30 = tail call i32 (ptr, ptr, ...) @fprintf(ptr noundef nonnull %18, ptr noundef nonnull @.str.6, i32 noundef 1) #19
  %31 = shl nuw i32 1, %1
  %32 = tail call i32 (ptr, ptr, ...) @fprintf(ptr noundef nonnull %18, ptr noundef nonnull @.str.7, i32 noundef %31) #19
  %.not = icmp eq i32 %1, 31
  br i1 %.not, label %._crit_edge, label %.preheader.lr.ph

.preheader.lr.ph:                                 ; preds = %22
  %33 = icmp sgt i32 %2, 0
  %34 = getelementptr inbounds nuw i8, ptr %11, i64 56
  br i1 %33, label %.preheader.us.preheader, label %.preheader.preheader

.preheader.preheader:                             ; preds = %.preheader.lr.ph
  %smax = tail call i32 @llvm.smax.i32(i32 %31, i32 1)
  br label %.preheader

.preheader.us.preheader:                          ; preds = %.preheader.lr.ph
  %35 = add nsw i32 %1, -1
  %36 = zext i32 %35 to i64
  %smax42 = tail call i32 @llvm.smax.i32(i32 %31, i32 1)
  %wide.trip.count = zext nneg i32 %2 to i64
  br label %.preheader.us

.preheader.us:                                    ; preds = %.preheader.us.preheader, %..critedge_crit_edge.us
  %.038.us = phi i32 [ %59, %..critedge_crit_edge.us ], [ 0, %.preheader.us.preheader ]
  %37 = lshr i32 %.038.us, 5
  %38 = zext nneg i32 %37 to i64
  %39 = and i32 %.038.us, 31
  br label %40

40:                                               ; preds = %.preheader.us, %52
  %indvars.iv = phi i64 [ 0, %.preheader.us ], [ %indvars.iv.next, %52 ]
  %.val.us = load ptr, ptr %7, align 8, !tbaa !35
  %41 = getelementptr inbounds nuw ptr, ptr %.val.us, i64 %indvars.iv
  %42 = load ptr, ptr %41, align 8, !tbaa !41
  %43 = getelementptr inbounds nuw i8, ptr %42, i64 56
  %44 = load ptr, ptr %43, align 8, !tbaa !57
  %45 = getelementptr inbounds nuw i32, ptr %44, i64 %38
  %46 = load i32, ptr %45, align 4, !tbaa !45
  %47 = lshr i32 %46, %39
  %48 = and i32 %47, 1
  %49 = tail call i32 (ptr, ptr, ...) @fprintf(ptr noundef nonnull %18, ptr noundef nonnull @.str.8, i32 noundef %48) #19
  %50 = icmp eq i64 %indvars.iv, %36
  br i1 %50, label %51, label %52

51:                                               ; preds = %40
  %fputc.us = tail call i32 @fputc(i32 32, ptr nonnull %18)
  br label %52

52:                                               ; preds = %51, %40
  %indvars.iv.next = add nuw nsw i64 %indvars.iv, 1
  %exitcond41.not = icmp eq i64 %indvars.iv.next, %wide.trip.count
  br i1 %exitcond41.not, label %..critedge_crit_edge.us, label %40, !llvm.loop !149

..critedge_crit_edge.us:                          ; preds = %52
  %53 = load ptr, ptr %34, align 8, !tbaa !57
  %54 = getelementptr inbounds nuw i32, ptr %53, i64 %38
  %55 = load i32, ptr %54, align 4, !tbaa !45
  %56 = lshr i32 %55, %39
  %57 = and i32 %56, 1
  %58 = tail call i32 (ptr, ptr, ...) @fprintf(ptr noundef nonnull %18, ptr noundef nonnull @.str.10, i32 noundef %57) #19
  %59 = add nuw nsw i32 %.038.us, 1
  %exitcond43.not = icmp eq i32 %59, %smax42
  br i1 %exitcond43.not, label %._crit_edge, label %.preheader.us, !llvm.loop !150

.preheader:                                       ; preds = %.preheader.preheader, %.preheader
  %.038 = phi i32 [ %69, %.preheader ], [ 0, %.preheader.preheader ]
  %60 = load ptr, ptr %34, align 8, !tbaa !57
  %61 = lshr i32 %.038, 5
  %62 = zext nneg i32 %61 to i64
  %63 = getelementptr inbounds nuw i32, ptr %60, i64 %62
  %64 = load i32, ptr %63, align 4, !tbaa !45
  %65 = and i32 %.038, 31
  %66 = lshr i32 %64, %65
  %67 = and i32 %66, 1
  %68 = tail call i32 (ptr, ptr, ...) @fprintf(ptr noundef nonnull %18, ptr noundef nonnull @.str.10, i32 noundef %67) #19
  %69 = add nuw nsw i32 %.038, 1
  %exitcond.not = icmp eq i32 %69, %smax
  br i1 %exitcond.not, label %._crit_edge, label %.preheader, !llvm.loop !150

._crit_edge:                                      ; preds = %.preheader, %..critedge_crit_edge.us, %22
  %70 = tail call i64 @fwrite(ptr nonnull @.str.11, i64 3, i64 1, ptr nonnull %18)
  %71 = tail call i32 @fclose(ptr noundef nonnull %18)
  %72 = call i32 (ptr, ...) @printf(ptr noundef nonnull dereferenceable(1) @.str.12, ptr noundef nonnull %5, i32 noundef %2, i32 noundef %31)
  br label %73

73:                                               ; preds = %._crit_edge, %20
  call void @llvm.lifetime.end.p0(i64 1000, ptr nonnull %5) #19
  ret void
}